target datalayout = "e-m:e-p270:32:32-p271:32:32-p272:64:64-i64:64-i128:128-f80:128-n8:16:32:64-S128"
target triple = "x86_64-unknown-linux-gnu"

%"class.folly::Optional.40" = type { %"struct.folly::Optional<unsigned long>::StorageTriviallyDestructible" }
%"struct.folly::Optional<unsigned long>::StorageTriviallyDestructible" = type <{ %union.anon.41, i8, [7 x i8] }>
%union.anon.41 = type { i64 }
%"class.folly::Optional.27" = type { %"struct.folly::Optional<unsigned char>::StorageTriviallyDestructible" }
%"struct.folly::Optional<unsigned char>::StorageTriviallyDestructible" = type { %union.anon.28, i8 }
%union.anon.28 = type { i8 }
%"class.std::chrono::time_point" = type { %"class.std::chrono::duration" }
%"class.std::chrono::duration" = type { i64 }
%"class.proxygen::WheelTimerInstance" = type { ptr, %"class.std::chrono::duration.14" }
%"class.std::chrono::duration.14" = type { i64 }
%"class.std::unique_ptr" = type { %"struct.std::__uniq_ptr_data" }
%"struct.std::__uniq_ptr_data" = type { %"class.std::__uniq_ptr_impl" }
%"class.std::__uniq_ptr_impl" = type { %"class.std::tuple" }
%"class.std::tuple" = type { %"struct.std::_Tuple_impl" }
%"struct.std::_Tuple_impl" = type { %"struct.std::_Head_base.1" }
%"struct.std::_Head_base.1" = type { ptr }
%"struct.folly::IOBufQueue::Options" = type { i8 }
%"class.std::shared_ptr.94" = type { %"class.std::__shared_ptr.95" }
%"class.std::__shared_ptr.95" = type { ptr, %"class.std::__shared_count" }
%"class.std::__shared_count" = type { ptr }
%"class.proxygen::HTTPSession" = type { %"class.proxygen::HTTPSessionBase.base", %"class.proxygen::HTTPTransaction::Transport", %"class.proxygen::ByteEventTracker::Callback", %"class.folly::AsyncTransport::BufferCallback", %"class.proxygen::HTTPPriorityMapFactoryProvider", %"class.proxygen::FlowControlFilter::Callback", %"class.proxygen::HTTPCodec::Callback", %"class.folly::EventBase::LoopCallback", %"class.folly::AsyncReader::ReadCallback.base", %"class.folly::AsyncTransport::ReplaySafetyCallback", %"class.folly::AsyncWriter::WriteCallback", %"class.proxygen::HTTPSession::WriteTimeout", %"class.folly::IOBufQueue", %"class.folly::IOBufQueue", %"class.folly::F14NodeMap", %"class.folly::F14FastSet", %"class.folly::F14FastSet", i32, %"class.std::unique_ptr", %"class.proxygen::WheelTimerInstance", i32, i8, %"class.std::__cxx11::list.82", %"class.folly::Optional.87", ptr, i32, i32, i32, i32, i64, i64, i64, %"class.std::vector", %"class.std::shared_ptr.94", %"class.std::unique_ptr.46", ptr, i64, i64, i64, i64, %"class.std::unique_ptr.97", %"class.proxygen::HTTPSession::FlowControlTimeout", %"class.proxygen::HTTPSession::DrainTimeout", %"class.std::unique_ptr.105", %"class.std::unique_ptr.113", i8, i8, i8, i8, %"class.proxygen::HTTPSession::ObserverAccessor", %"class.proxygen::HTTPSessionObserverContainer" }
%"class.proxygen::HTTPSessionBase.base" = type <{ %"class.wangle::ManagedConnection", ptr, ptr, %"struct.wangle::TransportInfo", %"class.proxygen::FilterChain", %"class.proxygen::HTTP2PriorityQueue", %"class.folly::SocketAddress", %"class.folly::SocketAddress", %"class.folly::Optional.44", i8, [7 x i8], %"class.std::unique_ptr.46", %"struct.std::array.54", ptr, %"class.std::chrono::time_point", %"class.std::chrono::duration.55", i32, i32, i32, i32, i32, i32, i64, i64, i32, i8, i8 }>
%"class.wangle::ManagedConnection" = type { %"class.folly::HHWheelTimerBase<std::chrono::duration<long, std::ratio<1, 1000>>>::Callback", %"class.folly::DelayedDestruction.base", i32, ptr, %"class.wangle::ConnectionAgeTimeout", %"class.folly::Optional", %"class.std::chrono::time_point", %"class.boost::intrusive::list_member_hook" }
%"class.folly::HHWheelTimerBase<std::chrono::duration<long, std::ratio<1, 1000>>>::Callback" = type { ptr, %"class.boost::intrusive::list_base_hook", ptr, %"class.std::chrono::time_point", i32, %"class.std::shared_ptr" }
%"class.boost::intrusive::list_base_hook" = type { %"class.boost::intrusive::generic_hook" }
%"class.boost::intrusive::generic_hook" = type { %"struct.boost::intrusive::node_holder" }
%"struct.boost::intrusive::node_holder" = type { %"struct.boost::intrusive::list_node" }
%"struct.boost::intrusive::list_node" = type { ptr, ptr }
%"class.std::shared_ptr" = type { %"class.std::__shared_ptr" }
%"class.std::__shared_ptr" = type { ptr, %"class.std::__shared_count" }
%"class.folly::DelayedDestruction.base" = type { %"class.folly::DelayedDestructionBase.base", i8 }
%"class.folly::DelayedDestructionBase.base" = type <{ ptr, i32 }>
%"class.wangle::ConnectionAgeTimeout" = type { %"class.folly::HHWheelTimerBase<std::chrono::duration<long, std::ratio<1, 1000>>>::Callback", ptr }
%"class.folly::Optional" = type { %"struct.folly::Optional<std::chrono::time_point<std::chrono::_V2::steady_clock, std::chrono::duration<long, std::ratio<1, 1000000000>>>>::StorageTriviallyDestructible" }
%"struct.folly::Optional<std::chrono::time_point<std::chrono::_V2::steady_clock, std::chrono::duration<long, std::ratio<1, 1000000000>>>>::StorageTriviallyDestructible" = type <{ %union.anon, i8, [7 x i8] }>
%union.anon = type { %"class.std::chrono::time_point" }
%"class.boost::intrusive::list_member_hook" = type { %"class.boost::intrusive::generic_hook.10" }
%"class.boost::intrusive::generic_hook.10" = type { %"struct.boost::intrusive::list_node" }
%"struct.wangle::TransportInfo" = type { %"class.std::chrono::time_point", %"class.std::chrono::time_point", %"class.std::chrono::duration.12", i64, i64, i64, i64, i64, i64, i64, i64, i64, %"class.std::__cxx11::basic_string", i32, %struct.tcp_info, %"class.std::chrono::duration.14", %"class.std::chrono::duration.14", %"class.std::shared_ptr.15", %"class.std::shared_ptr.15", %"class.std::shared_ptr.15", %"class.std::shared_ptr.15", %"class.std::shared_ptr.15", %"class.std::shared_ptr.15", %"class.std::shared_ptr.15", %"class.std::shared_ptr.15", %"class.std::shared_ptr.15", %"class.std::shared_ptr.15", %"class.std::shared_ptr.15", %"class.std::shared_ptr.15", %"class.std::shared_ptr.18", i64, i64, i64, %"class.std::shared_ptr.21", %"class.std::shared_ptr.21", %"class.std::shared_ptr.21", i32, i32, i32, %"class.std::__cxx11::basic_string", i16, %"class.std::shared_ptr.15", i16, i8, i32, i8, i8, %"class.std::__cxx11::basic_string", %"class.std::shared_ptr.24", %"class.std::shared_ptr.15", %"class.std::shared_ptr.15", i8, %"class.folly::Optional.27", %"class.std::__cxx11::basic_string" }
%"class.std::chrono::duration.12" = type { i64 }
%struct.tcp_info = type { i8, i8, i8, i8, i8, i8, i8, i32, i32, i32, i32, i32, i32, i32, i32, i32, i32, i32, i32, i32, i32, i32, i32, i32, i32, i32, i32, i32, i32, i32, i32 }
%"class.std::shared_ptr.18" = type { %"class.std::__shared_ptr.19" }
%"class.std::__shared_ptr.19" = type { ptr, %"class.std::__shared_count" }
%"class.std::shared_ptr.21" = type { %"class.std::__shared_ptr.22" }
%"class.std::__shared_ptr.22" = type { ptr, %"class.std::__shared_count" }
%"class.std::shared_ptr.24" = type { %"class.std::__shared_ptr.25" }
%"class.std::__shared_ptr.25" = type { ptr, %"class.std::__shared_count" }
%"class.std::shared_ptr.15" = type { %"class.std::__shared_ptr.16" }
%"class.std::__shared_ptr.16" = type { ptr, %"class.std::__shared_count" }
%"class.std::__cxx11::basic_string" = type { %"struct.std::__cxx11::basic_string<char>::_Alloc_hider", i64, %union.anon.13 }
%"struct.std::__cxx11::basic_string<char>::_Alloc_hider" = type { ptr }
%union.anon.13 = type { i64, [8 x i8] }
%"class.proxygen::FilterChain" = type { %"class.proxygen::PassThroughHTTPCodecFilter", ptr }
%"class.proxygen::PassThroughHTTPCodecFilter" = type { %"class.proxygen::GenericFilter" }
%"class.proxygen::GenericFilter" = type { %"class.proxygen::HTTPCodec", %"class.proxygen::HTTPCodec::Callback", i8, i8, ptr, ptr, ptr, ptr, ptr, ptr }
%"class.proxygen::HTTPCodec" = type { ptr }
%"class.proxygen::HTTP2PriorityQueue" = type { %"class.proxygen::HTTP2PriorityQueueBase", %"class.folly::F14FastMap", %"class.proxygen::HTTP2PriorityQueue::Node", i32, i64, i32, i32, %"class.folly::Optional.40", i8, %"class.proxygen::WheelTimerInstance", ptr }
%"class.proxygen::HTTP2PriorityQueueBase" = type { %"class.proxygen::HTTPCodec::PriorityQueue", i64 }
%"class.proxygen::HTTPCodec::PriorityQueue" = type { ptr }
%"class.folly::F14FastMap" = type { %"class.folly::F14ValueMap" }
%"class.folly::F14ValueMap" = type { %"class.folly::f14::detail::F14BasicMap" }
%"class.folly::f14::detail::F14BasicMap" = type { %"class.folly::f14::detail::F14Table" }
%"class.folly::f14::detail::F14Table" = type { ptr, %"struct.folly::f14::detail::SizeAndChunkShiftAndPackedBegin" }
%"struct.folly::f14::detail::SizeAndChunkShiftAndPackedBegin" = type { %"struct.folly::f14::detail::PackedSizeAndChunkShift", %"class.folly::f14::detail::PackedChunkItemPtr" }
%"struct.folly::f14::detail::PackedSizeAndChunkShift" = type { i64 }
%"class.folly::f14::detail::PackedChunkItemPtr" = type { i64 }
%"class.proxygen::HTTP2PriorityQueue::Node" = type { %"class.proxygen::HTTP2PriorityQueueBase::BaseNode", %"class.folly::HHWheelTimerBase<std::chrono::duration<long, std::ratio<1, 1000>>>::Callback", ptr, ptr, i64, i16, ptr, i8, i8, i64, i64, %"class.std::__cxx11::list", %"struct.std::_List_iterator", %"class.boost::intrusive::list_member_hook.37", %"class.boost::intrusive::list" }
%"class.proxygen::HTTP2PriorityQueueBase::BaseNode" = type { ptr }
%"class.std::__cxx11::list" = type { %"class.std::__cxx11::_List_base" }
%"class.std::__cxx11::_List_base" = type { %"struct.std::__cxx11::_List_base<std::unique_ptr<proxygen::HTTP2PriorityQueue::Node>, std::allocator<std::unique_ptr<proxygen::HTTP2PriorityQueue::Node>>>::_List_impl" }
%"struct.std::__cxx11::_List_base<std::unique_ptr<proxygen::HTTP2PriorityQueue::Node>, std::allocator<std::unique_ptr<proxygen::HTTP2PriorityQueue::Node>>>::_List_impl" = type { %"struct.std::__detail::_List_node_header" }
%"struct.std::__detail::_List_node_header" = type { %"struct.std::__detail::_List_node_base", i64 }
%"struct.std::__detail::_List_node_base" = type { ptr, ptr }
%"struct.std::_List_iterator" = type { ptr }
%"class.boost::intrusive::list_member_hook.37" = type { %"class.boost::intrusive::generic_hook.38" }
%"class.boost::intrusive::generic_hook.38" = type { %"struct.boost::intrusive::list_node" }
%"class.boost::intrusive::list" = type { %"class.boost::intrusive::list_impl" }
%"class.boost::intrusive::list_impl" = type { %"struct.boost::intrusive::list_impl<boost::intrusive::mhtraits<proxygen::HTTP2PriorityQueue::Node, boost::intrusive::list_member_hook<boost::intrusive::link_mode<boost::intrusive::auto_unlink>>, &proxygen::HTTP2PriorityQueue::Node::enqueuedHook_>, unsigned long, false, void>::data_t" }
%"struct.boost::intrusive::list_impl<boost::intrusive::mhtraits<proxygen::HTTP2PriorityQueue::Node, boost::intrusive::list_member_hook<boost::intrusive::link_mode<boost::intrusive::auto_unlink>>, &proxygen::HTTP2PriorityQueue::Node::enqueuedHook_>, unsigned long, false, void>::data_t" = type { %"struct.boost::intrusive::list_impl<boost::intrusive::mhtraits<proxygen::HTTP2PriorityQueue::Node, boost::intrusive::list_member_hook<boost::intrusive::link_mode<boost::intrusive::auto_unlink>>, &proxygen::HTTP2PriorityQueue::Node::enqueuedHook_>, unsigned long, false, void>::root_plus_size" }
%"struct.boost::intrusive::list_impl<boost::intrusive::mhtraits<proxygen::HTTP2PriorityQueue::Node, boost::intrusive::list_member_hook<boost::intrusive::link_mode<boost::intrusive::auto_unlink>>, &proxygen::HTTP2PriorityQueue::Node::enqueuedHook_>, unsigned long, false, void>::root_plus_size" = type { %"struct.boost::intrusive::detail::default_header_holder" }
%"struct.boost::intrusive::detail::default_header_holder" = type { %"struct.boost::intrusive::list_node" }
%"class.folly::SocketAddress" = type <{ %"union.folly::SocketAddress::AddrStorage", i16, i8, [5 x i8] }>
%"union.folly::SocketAddress::AddrStorage" = type { %"struct.folly::SocketAddress::ExternalUnixAddr", [8 x i8] }
%"struct.folly::SocketAddress::ExternalUnixAddr" = type { ptr, i32 }
%"class.folly::Optional.44" = type { %"struct.folly::Optional<std::__cxx11::basic_string<char>>::StorageNonTriviallyDestructible" }
%"struct.folly::Optional<std::__cxx11::basic_string<char>>::StorageNonTriviallyDestructible" = type <{ %union.anon.45, i8, [7 x i8] }>
%union.anon.45 = type { %"class.std::__cxx11::basic_string" }
%"struct.std::array.54" = type { [4 x ptr] }
%"class.std::chrono::duration.55" = type { i64 }
%"class.proxygen::HTTPTransaction::Transport" = type { ptr }
%"class.proxygen::ByteEventTracker::Callback" = type { ptr }
%"class.folly::AsyncTransport::BufferCallback" = type { ptr }
%"class.proxygen::HTTPPriorityMapFactoryProvider" = type { ptr }
%"class.proxygen::FlowControlFilter::Callback" = type { ptr }
%"class.proxygen::HTTPCodec::Callback" = type { ptr }
%"class.folly::EventBase::LoopCallback" = type { ptr, %"class.boost::intrusive::list_base_hook", %"class.std::shared_ptr" }
%"class.folly::AsyncReader::ReadCallback.base" = type <{ ptr, i8 }>
%"class.folly::AsyncTransport::ReplaySafetyCallback" = type { ptr }
%"class.folly::AsyncWriter::WriteCallback" = type { ptr }
%"class.proxygen::HTTPSession::WriteTimeout" = type { %"class.folly::HHWheelTimerBase<std::chrono::duration<long, std::ratio<1, 1000>>>::Callback", ptr }
%"class.folly::IOBufQueue" = type { %"struct.folly::IOBufQueue::Options", i64, %"class.std::unique_ptr.56", ptr, ptr, %"struct.folly::IOBufQueue::WritableRangeCacheData", ptr }
%"class.std::unique_ptr.56" = type { %"struct.std::__uniq_ptr_data.57" }
%"struct.std::__uniq_ptr_data.57" = type { %"class.std::__uniq_ptr_impl.58" }
%"class.std::__uniq_ptr_impl.58" = type { %"class.std::tuple.59" }
%"class.std::tuple.59" = type { %"struct.std::_Tuple_impl.60" }
%"struct.std::_Tuple_impl.60" = type { %"struct.std::_Head_base.63" }
%"struct.std::_Head_base.63" = type { ptr }
%"struct.folly::IOBufQueue::WritableRangeCacheData" = type <{ %"struct.std::pair", i8, [7 x i8] }>
%"struct.std::pair" = type { ptr, ptr }
%"class.folly::F14NodeMap" = type { %"class.folly::f14::detail::F14BasicMap.64" }
%"class.folly::f14::detail::F14BasicMap.64" = type { %"class.folly::f14::detail::F14Table.65" }
%"class.folly::f14::detail::F14Table.65" = type { ptr, %"struct.folly::f14::detail::SizeAndChunkShiftAndPackedBegin.71" }
%"struct.folly::f14::detail::SizeAndChunkShiftAndPackedBegin.71" = type { %"struct.folly::f14::detail::PackedSizeAndChunkShift", %"class.folly::f14::detail::PackedChunkItemPtr.72" }
%"class.folly::f14::detail::PackedChunkItemPtr.72" = type { i64 }
%"class.folly::F14FastSet" = type { %"class.folly::F14ValueSet" }
%"class.folly::F14ValueSet" = type { %"class.folly::f14::detail::F14BasicSet" }
%"class.folly::f14::detail::F14BasicSet" = type { %"class.folly::f14::detail::F14Table.73" }
%"class.folly::f14::detail::F14Table.73" = type { ptr, %"struct.folly::f14::detail::SizeAndChunkShiftAndPackedBegin.80" }
%"struct.folly::f14::detail::SizeAndChunkShiftAndPackedBegin.80" = type { %"struct.folly::f14::detail::PackedSizeAndChunkShift", %"class.folly::f14::detail::PackedChunkItemPtr.81" }
%"class.folly::f14::detail::PackedChunkItemPtr.81" = type { i64 }
%"class.std::__cxx11::list.82" = type { %"class.std::__cxx11::_List_base.83" }
%"class.std::__cxx11::_List_base.83" = type { %"struct.std::__cxx11::_List_base<folly::AsyncTransport::ReplaySafetyCallback *, std::allocator<folly::AsyncTransport::ReplaySafetyCallback *>>::_List_impl" }
%"struct.std::__cxx11::_List_base<folly::AsyncTransport::ReplaySafetyCallback *, std::allocator<folly::AsyncTransport::ReplaySafetyCallback *>>::_List_impl" = type { %"struct.std::__detail::_List_node_header" }
%"class.folly::Optional.87" = type { %"struct.folly::Optional<std::pair<unsigned long, folly::DelayedDestructionBase::DestructorGuard>>::StorageNonTriviallyDestructible" }
%"struct.folly::Optional<std::pair<unsigned long, folly::DelayedDestructionBase::DestructorGuard>>::StorageNonTriviallyDestructible" = type <{ %union.anon.88, i8, [7 x i8] }>
%union.anon.88 = type { %"struct.std::pair.89" }
%"struct.std::pair.89" = type { i64, %"class.folly::DelayedDestructionBase::DestructorGuard" }
%"class.folly::DelayedDestructionBase::DestructorGuard" = type { ptr }
%"class.std::vector" = type { %"struct.std::_Vector_base" }
%"struct.std::_Vector_base" = type { %"struct.std::_Vector_base<std::pair<proxygen::HTTPTransaction *, double>, std::allocator<std::pair<proxygen::HTTPTransaction *, double>>>::_Vector_impl" }
%"struct.std::_Vector_base<std::pair<proxygen::HTTPTransaction *, double>, std::allocator<std::pair<proxygen::HTTPTransaction *, double>>>::_Vector_impl" = type { %"struct.std::_Vector_base<std::pair<proxygen::HTTPTransaction *, double>, std::allocator<std::pair<proxygen::HTTPTransaction *, double>>>::_Vector_impl_data" }
%"struct.std::_Vector_base<std::pair<proxygen::HTTPTransaction *, double>, std::allocator<std::pair<proxygen::HTTPTransaction *, double>>>::_Vector_impl_data" = type { ptr, ptr, ptr }
%"class.std::unique_ptr.46" = type { %"struct.std::__uniq_ptr_data.47" }
%"struct.std::__uniq_ptr_data.47" = type { %"class.std::__uniq_ptr_impl.48" }
%"class.std::__uniq_ptr_impl.48" = type { %"class.std::tuple.49" }
%"class.std::tuple.49" = type { %"struct.std::_Tuple_impl.50" }
%"struct.std::_Tuple_impl.50" = type { %"struct.std::_Head_base.53" }
%"struct.std::_Head_base.53" = type { ptr }
%"class.std::unique_ptr.97" = type { %"struct.std::__uniq_ptr_data.98" }
%"struct.std::__uniq_ptr_data.98" = type { %"class.std::__uniq_ptr_impl.99" }
%"class.std::__uniq_ptr_impl.99" = type { %"class.std::tuple.100" }
%"class.std::tuple.100" = type { %"struct.std::_Tuple_impl.101" }
%"struct.std::_Tuple_impl.101" = type { %"struct.std::_Head_base.104" }
%"struct.std::_Head_base.104" = type { ptr }
%"class.proxygen::HTTPSession::FlowControlTimeout" = type { %"class.folly::HHWheelTimerBase<std::chrono::duration<long, std::ratio<1, 1000>>>::Callback", ptr, %"class.std::chrono::duration.14" }
%"class.proxygen::HTTPSession::DrainTimeout" = type { %"class.folly::HHWheelTimerBase<std::chrono::duration<long, std::ratio<1, 1000>>>::Callback", ptr }
%"class.std::unique_ptr.105" = type { %"struct.std::__uniq_ptr_data.106" }
%"struct.std::__uniq_ptr_data.106" = type { %"class.std::__uniq_ptr_impl.107" }
%"class.std::__uniq_ptr_impl.107" = type { %"class.std::tuple.108" }
%"class.std::tuple.108" = type { %"struct.std::_Tuple_impl.109" }
%"struct.std::_Tuple_impl.109" = type { %"struct.std::_Head_base.112" }
%"struct.std::_Head_base.112" = type { ptr }
%"class.std::unique_ptr.113" = type { %"struct.std::__uniq_ptr_data.114" }
%"struct.std::__uniq_ptr_data.114" = type { %"class.std::__uniq_ptr_impl.115" }
%"class.std::__uniq_ptr_impl.115" = type { %"class.std::tuple.116" }
%"class.std::tuple.116" = type { %"struct.std::_Tuple_impl.117" }
%"struct.std::_Tuple_impl.117" = type { %"struct.std::_Head_base.120" }
%"struct.std::_Head_base.120" = type { ptr }
%"class.proxygen::HTTPSession::ObserverAccessor" = type { %"class.proxygen::HTTPSessionObserverAccessor", ptr }
%"class.proxygen::HTTPSessionObserverAccessor" = type { ptr }
%"class.proxygen::HTTPSessionObserverContainer" = type { %"class.folly::ObserverContainer.base", [7 x i8] }
%"class.folly::ObserverContainer.base" = type <{ %"class.folly::ObserverContainerBase", ptr, %"class.folly::ObserverContainerStore", %"class.folly::ConstructorCallbackList" }>
%"class.folly::ObserverContainerBase" = type { ptr }
%"class.folly::ObserverContainerStore" = type <{ %"class.folly::ObserverContainerStoreBase", %"class.folly::small_vector", i8, [3 x i8], %"class.folly::Optional.121", i8, [3 x i8] }>
%"class.folly::ObserverContainerStoreBase" = type { ptr }
%"class.folly::small_vector" = type { %"struct.boost::operators_impl::totally_ordered1", %"union.folly::small_vector<std::shared_ptr<folly::ObserverContainerBase<proxygen::HTTPSessionObserverInterface, proxygen::HTTPSessionObserverAccessor, folly::ObserverContainerBasePolicyDefault<proxygen::HTTPSessionObserverInterface::Events, 32>>::Observer>, 2>::Data" }
%"struct.boost::operators_impl::totally_ordered1" = type { %"struct.boost::operators_impl::less_than_comparable1" }
%"struct.boost::operators_impl::less_than_comparable1" = type { %"struct.boost::operators_impl::equality_comparable1" }
%"struct.boost::operators_impl::equality_comparable1" = type { %"struct.folly::detail::IntegralSizePolicy" }
%"struct.folly::detail::IntegralSizePolicy" = type { %"struct.folly::detail::IntegralSizePolicyBase" }
%"struct.folly::detail::IntegralSizePolicyBase" = type { i64 }
%"union.folly::small_vector<std::shared_ptr<folly::ObserverContainerBase<proxygen::HTTPSessionObserverInterface, proxygen::HTTPSessionObserverAccessor, folly::ObserverContainerBasePolicyDefault<proxygen::HTTPSessionObserverInterface::Events, 32>>::Observer>, 2>::Data" = type { %"struct.folly::small_vector<std::shared_ptr<folly::ObserverContainerBase<proxygen::HTTPSessionObserverInterface, proxygen::HTTPSessionObserverAccessor, folly::ObserverContainerBasePolicyDefault<proxygen::HTTPSessionObserverInterface::Events, 32>>::Observer>, 2>::HeapPtrWithCapacity", [16 x i8] }
%"struct.folly::small_vector<std::shared_ptr<folly::ObserverContainerBase<proxygen::HTTPSessionObserverInterface, proxygen::HTTPSessionObserverAccessor, folly::ObserverContainerBasePolicyDefault<proxygen::HTTPSessionObserverInterface::Events, 32>>::Observer>, 2>::HeapPtrWithCapacity" = type { ptr, i64 }
%"class.folly::Optional.121" = type { %"struct.folly::Optional<folly::ObserverContainerStoreBase<folly::ObserverContainerBase<proxygen::HTTPSessionObserverInterface, proxygen::HTTPSessionObserverAccessor, folly::ObserverContainerBasePolicyDefault<proxygen::HTTPSessionObserverInterface::Events, 32>>::Observer>::InvokeWhileIteratingPolicy>::StorageTriviallyDestructible" }
%"struct.folly::Optional<folly::ObserverContainerStoreBase<folly::ObserverContainerBase<proxygen::HTTPSessionObserverInterface, proxygen::HTTPSessionObserverAccessor, folly::ObserverContainerBasePolicyDefault<proxygen::HTTPSessionObserverInterface::Events, 32>>::Observer>::InvokeWhileIteratingPolicy>::StorageTriviallyDestructible" = type <{ %union.anon.122, i8, [3 x i8] }>
%union.anon.122 = type { i32 }
%"class.folly::ConstructorCallbackList" = type { i8 }
%"class.proxygen::HTTPSessionBase" = type <{ %"class.wangle::ManagedConnection", ptr, ptr, %"struct.wangle::TransportInfo", %"class.proxygen::FilterChain", %"class.proxygen::HTTP2PriorityQueue", %"class.folly::SocketAddress", %"class.folly::SocketAddress", %"class.folly::Optional.44", i8, [7 x i8], %"class.std::unique_ptr.46", %"struct.std::array.54", ptr, %"class.std::chrono::time_point", %"class.std::chrono::duration.55", i32, i32, i32, i32, i32, i32, i64, i64, i32, i8, i8, [2 x i8] }>

; Function Attrs: mustprogress nounwind uwtable
define linkonce_odr noundef ptr @_ZN8proxygen11FilterChainINS_9HTTPCodecENS1_8CallbackENS_26PassThroughHTTPCodecFilterEXadL_ZNS1_11setCallbackEPS2_EELb1EE4callEv(ptr noundef nonnull align 8 dereferenceable(80) %this) #5 comdat align 2 {
entry:
  %this.addr = alloca ptr, align 8
  store ptr %this, ptr %this.addr, align 8
  %this1 = load ptr, ptr %this.addr, align 8
  %call_ = getelementptr inbounds %"class.proxygen::GenericFilter", ptr %this1, i32 0, i32 4
  %0 = load ptr, ptr %call_, align 8
  ret ptr %0
}

; Function Attrs: mustprogress uwtable
define linkonce_odr noundef ptr @_ZN8proxygen11FilterChainINS_9HTTPCodecENS1_8CallbackENS_26PassThroughHTTPCodecFilterEXadL_ZNS1_11setCallbackEPS2_EELb1EEptEv(ptr noundef nonnull align 8 dereferenceable(80) %this) #4 comdat align 2 {
entry:
  %this.addr = alloca ptr, align 8
  store ptr %this, ptr %this.addr, align 8
  %this1 = load ptr, ptr %this.addr, align 8
  %call = call noundef ptr @_ZN8proxygen11FilterChainINS_9HTTPCodecENS1_8CallbackENS_26PassThroughHTTPCodecFilterEXadL_ZNS1_11setCallbackEPS2_EELb1EE4callEv(ptr noundef nonnull align 8 dereferenceable(80) %this1)
  ret ptr %call
}

; Function Attrs: mustprogress uwtable
define noundef i64 @_ZN8proxygen11HTTPSession12sendSettingsEv(ptr noundef nonnull align 8 dereferenceable(2504) %this) unnamed_addr #4 align 2 {
entry:
  %this.addr = alloca ptr, align 8
  %size = alloca i64, align 8
  store ptr %this, ptr %this.addr, align 8
  %this1 = load ptr, ptr %this.addr, align 8
  %codec_ = getelementptr inbounds %"class.proxygen::HTTPSessionBase", ptr %this1, i32 0, i32 4
  %call = call noundef ptr @_ZN8proxygen11FilterChainINS_9HTTPCodecENS1_8CallbackENS_26PassThroughHTTPCodecFilterEXadL_ZNS1_11setCallbackEPS2_EELb1EEptEv(ptr noundef nonnull align 8 dereferenceable(80) %codec_)
  %writeBuf_ = getelementptr inbounds %"class.proxygen::HTTPSession", ptr %this1, i32 0, i32 12
  %vtable = load ptr, ptr %call, align 8
  %vfn = getelementptr inbounds ptr, ptr %vtable, i64 37
  %0 = load ptr, ptr %vfn, align 8
  %call2 = call noundef i64 %0(ptr noundef nonnull align 8 dereferenceable(8) %call, ptr noundef nonnull align 8 dereferenceable(72) %writeBuf_)
  store i64 %call2, ptr %size, align 8
  call void @_ZN8proxygen11HTTPSession13scheduleWriteEv(ptr noundef nonnull align 8 dereferenceable(2504) %this1)
  %1 = load i64, ptr %size, align 8
  ret i64 %1
}