; Function Attrs: mustprogress uwtable
define noundef i64 @_ZN8proxygen11HTTPSession12sendSettingsEv(ptr noundef nonnull align 8 dereferenceable(2504) %this) unnamed_addr #3 align 2 {
entry:
  %call_.i.i = getelementptr inbounds i8, ptr %this, i64 992
  %0 = load ptr, ptr %call_.i.i, align 8
  %writeBuf_ = getelementptr inbounds i8, ptr %this, i64 1776
  %vtable = load ptr, ptr %0, align 8
  %vfn = getelementptr inbounds i8, ptr %vtable, i64 296
  %1 = load ptr, ptr %vfn, align 8
  %call2 = tail call noundef i64 %1(ptr noundef nonnull align 8 dereferenceable(8) %0, ptr noundef nonnull align 8 dereferenceable(72) %writeBuf_)
  tail call void @_ZN8proxygen11HTTPSession13scheduleWriteEv(ptr noundef nonnull align 8 dereferenceable(2504) %this)
  ret i64 %call2
}